target datalayout = "e-m:e-p270:32:32-p271:32:32-p272:64:64-i64:64-i128:128-f80:128-n8:16:32:64-S128"
target triple = "x86_64-pc-linux-gnu"

%struct.AVCodecParserContext = type { ptr, ptr, i64, i64, i64, i32, i32, i64, i64, i64, i64, i32, i32, [4 x i64], [4 x i64], [4 x i64], i32, i64, [4 x i64], i32, i32, i32, i32, [4 x i64], i64, i64, i32, i32, i32, i32, i32, i32, i32, i32, i32 }

; Function Attrs: nounwind uwtable
define void @ff_fetch_timestamp(ptr noundef %0, i32 noundef %1, i32 noundef %2, i32 noundef %3) #0 {
  %5 = alloca ptr, align 8
  %6 = alloca i32, align 4
  %7 = alloca i32, align 4
  %8 = alloca i32, align 4
  %9 = alloca i32, align 4
  store ptr %0, ptr %5, align 8, !tbaa !8
  store i32 %1, ptr %6, align 4, !tbaa !4
  store i32 %2, ptr %7, align 4, !tbaa !4
  store i32 %3, ptr %8, align 4, !tbaa !4
  call void @llvm.lifetime.start.p0(i64 4, ptr %9) #6
  %10 = load i32, ptr %8, align 4, !tbaa !4
  %11 = icmp ne i32 %10, 0
  br i1 %11, label %21, label %12

12:                                               ; preds = %4
  %13 = load ptr, ptr %5, align 8, !tbaa !8
  %14 = getelementptr inbounds nuw %struct.AVCodecParserContext, ptr %13, i32 0, i32 7
  store i64 -9223372036854775808, ptr %14, align 8, !tbaa !30
  %15 = load ptr, ptr %5, align 8, !tbaa !8
  %16 = getelementptr inbounds nuw %struct.AVCodecParserContext, ptr %15, i32 0, i32 8
  store i64 -9223372036854775808, ptr %16, align 8, !tbaa !31
  %17 = load ptr, ptr %5, align 8, !tbaa !8
  %18 = getelementptr inbounds nuw %struct.AVCodecParserContext, ptr %17, i32 0, i32 24
  store i64 -1, ptr %18, align 8, !tbaa !32
  %19 = load ptr, ptr %5, align 8, !tbaa !8
  %20 = getelementptr inbounds nuw %struct.AVCodecParserContext, ptr %19, i32 0, i32 17
  store i64 0, ptr %20, align 8, !tbaa !33
  br label %21

21:                                               ; preds = %12, %4
  store i32 0, ptr %9, align 4, !tbaa !4
  br label %22

22:                                               ; preds = %142, %21
  %23 = load i32, ptr %9, align 4, !tbaa !4
  %24 = icmp slt i32 %23, 4
  br i1 %24, label %25, label %145

25:                                               ; preds = %22
  %26 = load ptr, ptr %5, align 8, !tbaa !8
  %27 = getelementptr inbounds nuw %struct.AVCodecParserContext, ptr %26, i32 0, i32 3
  %28 = load i64, ptr %27, align 8, !tbaa !34
  %29 = load i32, ptr %6, align 4, !tbaa !4
  %30 = sext i32 %29 to i64
  %31 = add nsw i64 %28, %30
  %32 = load ptr, ptr %5, align 8, !tbaa !8
  %33 = getelementptr inbounds nuw %struct.AVCodecParserContext, ptr %32, i32 0, i32 13
  %34 = load i32, ptr %9, align 4, !tbaa !4
  %35 = sext i32 %34 to i64
  %36 = getelementptr inbounds [4 x i64], ptr %33, i64 0, i64 %35
  %37 = load i64, ptr %36, align 8, !tbaa !35
  %38 = icmp sge i64 %31, %37
  br i1 %38, label %39, label %141

39:                                               ; preds = %25
  %40 = load ptr, ptr %5, align 8, !tbaa !8
  %41 = getelementptr inbounds nuw %struct.AVCodecParserContext, ptr %40, i32 0, i32 2
  %42 = load i64, ptr %41, align 8, !tbaa !36
  %43 = load ptr, ptr %5, align 8, !tbaa !8
  %44 = getelementptr inbounds nuw %struct.AVCodecParserContext, ptr %43, i32 0, i32 13
  %45 = load i32, ptr %9, align 4, !tbaa !4
  %46 = sext i32 %45 to i64
  %47 = getelementptr inbounds [4 x i64], ptr %44, i64 0, i64 %46
  %48 = load i64, ptr %47, align 8, !tbaa !35
  %49 = icmp slt i64 %42, %48
  br i1 %49, label %60, label %50

50:                                               ; preds = %39
  %51 = load ptr, ptr %5, align 8, !tbaa !8
  %52 = getelementptr inbounds nuw %struct.AVCodecParserContext, ptr %51, i32 0, i32 2
  %53 = load i64, ptr %52, align 8, !tbaa !36
  %54 = icmp ne i64 %53, 0
  br i1 %54, label %141, label %55

55:                                               ; preds = %50
  %56 = load ptr, ptr %5, align 8, !tbaa !8
  %57 = getelementptr inbounds nuw %struct.AVCodecParserContext, ptr %56, i32 0, i32 4
  %58 = load i64, ptr %57, align 8, !tbaa !37
  %59 = icmp ne i64 %58, 0
  br i1 %59, label %141, label %60

60:                                               ; preds = %55, %39
  %61 = load ptr, ptr %5, align 8, !tbaa !8
  %62 = getelementptr inbounds nuw %struct.AVCodecParserContext, ptr %61, i32 0, i32 18
  %63 = load i32, ptr %9, align 4, !tbaa !4
  %64 = sext i32 %63 to i64
  %65 = getelementptr inbounds [4 x i64], ptr %62, i64 0, i64 %64
  %66 = load i64, ptr %65, align 8, !tbaa !35
  %67 = icmp ne i64 %66, 0
  br i1 %67, label %68, label %141

68:                                               ; preds = %60
  %69 = load i32, ptr %8, align 4, !tbaa !4
  %70 = icmp ne i32 %69, 0
  br i1 %70, label %71, label %79

71:                                               ; preds = %68
  %72 = load ptr, ptr %5, align 8, !tbaa !8
  %73 = getelementptr inbounds nuw %struct.AVCodecParserContext, ptr %72, i32 0, i32 15
  %74 = load i32, ptr %9, align 4, !tbaa !4
  %75 = sext i32 %74 to i64
  %76 = getelementptr inbounds [4 x i64], ptr %73, i64 0, i64 %75
  %77 = load i64, ptr %76, align 8, !tbaa !35
  %78 = icmp ne i64 %77, -9223372036854775808
  br i1 %78, label %79, label %116

79:                                               ; preds = %71, %68
  %80 = load ptr, ptr %5, align 8, !tbaa !8
  %81 = getelementptr inbounds nuw %struct.AVCodecParserContext, ptr %80, i32 0, i32 15
  %82 = load i32, ptr %9, align 4, !tbaa !4
  %83 = sext i32 %82 to i64
  %84 = getelementptr inbounds [4 x i64], ptr %81, i64 0, i64 %83
  %85 = load i64, ptr %84, align 8, !tbaa !35
  %86 = load ptr, ptr %5, align 8, !tbaa !8
  %87 = getelementptr inbounds nuw %struct.AVCodecParserContext, ptr %86, i32 0, i32 8
  store i64 %85, ptr %87, align 8, !tbaa !31
  %88 = load ptr, ptr %5, align 8, !tbaa !8
  %89 = getelementptr inbounds nuw %struct.AVCodecParserContext, ptr %88, i32 0, i32 14
  %90 = load i32, ptr %9, align 4, !tbaa !4
  %91 = sext i32 %90 to i64
  %92 = getelementptr inbounds [4 x i64], ptr %89, i64 0, i64 %91
  %93 = load i64, ptr %92, align 8, !tbaa !35
  %94 = load ptr, ptr %5, align 8, !tbaa !8
  %95 = getelementptr inbounds nuw %struct.AVCodecParserContext, ptr %94, i32 0, i32 7
  store i64 %93, ptr %95, align 8, !tbaa !30
  %96 = load ptr, ptr %5, align 8, !tbaa !8
  %97 = getelementptr inbounds nuw %struct.AVCodecParserContext, ptr %96, i32 0, i32 23
  %98 = load i32, ptr %9, align 4, !tbaa !4
  %99 = sext i32 %98 to i64
  %100 = getelementptr inbounds [4 x i64], ptr %97, i64 0, i64 %99
  %101 = load i64, ptr %100, align 8, !tbaa !35
  %102 = load ptr, ptr %5, align 8, !tbaa !8
  %103 = getelementptr inbounds nuw %struct.AVCodecParserContext, ptr %102, i32 0, i32 24
  store i64 %101, ptr %103, align 8, !tbaa !32
  %104 = load ptr, ptr %5, align 8, !tbaa !8
  %105 = getelementptr inbounds nuw %struct.AVCodecParserContext, ptr %104, i32 0, i32 4
  %106 = load i64, ptr %105, align 8, !tbaa !37
  %107 = load ptr, ptr %5, align 8, !tbaa !8
  %108 = getelementptr inbounds nuw %struct.AVCodecParserContext, ptr %107, i32 0, i32 13
  %109 = load i32, ptr %9, align 4, !tbaa !4
  %110 = sext i32 %109 to i64
  %111 = getelementptr inbounds [4 x i64], ptr %108, i64 0, i64 %110
  %112 = load i64, ptr %111, align 8, !tbaa !35
  %113 = sub nsw i64 %106, %112
  %114 = load ptr, ptr %5, align 8, !tbaa !8
  %115 = getelementptr inbounds nuw %struct.AVCodecParserContext, ptr %114, i32 0, i32 17
  store i64 %113, ptr %115, align 8, !tbaa !33
  br label %116

116:                                              ; preds = %79, %71
  %117 = load i32, ptr %7, align 4, !tbaa !4
  %118 = icmp ne i32 %117, 0
  br i1 %118, label %119, label %125

119:                                              ; preds = %116
  %120 = load ptr, ptr %5, align 8, !tbaa !8
  %121 = getelementptr inbounds nuw %struct.AVCodecParserContext, ptr %120, i32 0, i32 13
  %122 = load i32, ptr %9, align 4, !tbaa !4
  %123 = sext i32 %122 to i64
  %124 = getelementptr inbounds [4 x i64], ptr %121, i64 0, i64 %123
  store i64 9223372036854775807, ptr %124, align 8, !tbaa !35
  br label %125

125:                                              ; preds = %119, %116
  %126 = load ptr, ptr %5, align 8, !tbaa !8
  %127 = getelementptr inbounds nuw %struct.AVCodecParserContext, ptr %126, i32 0, i32 3
  %128 = load i64, ptr %127, align 8, !tbaa !34
  %129 = load i32, ptr %6, align 4, !tbaa !4
  %130 = sext i32 %129 to i64
  %131 = add nsw i64 %128, %130
  %132 = load ptr, ptr %5, align 8, !tbaa !8
  %133 = getelementptr inbounds nuw %struct.AVCodecParserContext, ptr %132, i32 0, i32 18
  %134 = load i32, ptr %9, align 4, !tbaa !4
  %135 = sext i32 %134 to i64
  %136 = getelementptr inbounds [4 x i64], ptr %133, i64 0, i64 %135
  %137 = load i64, ptr %136, align 8, !tbaa !35
  %138 = icmp slt i64 %131, %137
  br i1 %138, label %139, label %140

139:                                              ; preds = %125
  br label %145

140:                                              ; preds = %125
  br label %141

141:                                              ; preds = %140, %60, %55, %50, %25
  br label %142

142:                                              ; preds = %141
  %143 = load i32, ptr %9, align 4, !tbaa !4
  %144 = add nsw i32 %143, 1
  store i32 %144, ptr %9, align 4, !tbaa !4
  br label %22, !llvm.loop !38

145:                                              ; preds = %139, %22
  call void @llvm.lifetime.end.p0(i64 4, ptr %9) #6
  ret void
}