; Function Attrs: nofree norecurse nosync nounwind memory(argmem: readwrite) uwtable
define void @ff_fetch_timestamp(ptr noundef captures(none) %0, i32 noundef %1, i32 noundef %2, i32 noundef %3) local_unnamed_addr #3 {
  %.not = icmp eq i32 %3, 0
  br i1 %.not, label %.split.us, label %.split

.split.us:                                        ; preds = %4
  %5 = getelementptr inbounds nuw i8, ptr %0, i64 48
  store i64 -9223372036854775808, ptr %5, align 8, !tbaa !27
  %6 = getelementptr inbounds nuw i8, ptr %0, i64 56
  store i64 -9223372036854775808, ptr %6, align 8, !tbaa !28
  %7 = getelementptr inbounds nuw i8, ptr %0, i64 280
  store i64 -1, ptr %7, align 8, !tbaa !29
  %8 = getelementptr inbounds nuw i8, ptr %0, i64 192
  store i64 0, ptr %8, align 8, !tbaa !30
  %9 = getelementptr inbounds nuw i8, ptr %0, i64 24
  %10 = load i64, ptr %9, align 8, !tbaa !31
  %11 = sext i32 %1 to i64
  %12 = add nsw i64 %10, %11
  %13 = getelementptr inbounds nuw i8, ptr %0, i64 88
  %14 = getelementptr inbounds nuw i8, ptr %0, i64 16
  %15 = getelementptr inbounds nuw i8, ptr %0, i64 32
  %16 = getelementptr inbounds nuw i8, ptr %0, i64 200
  %17 = getelementptr inbounds nuw i8, ptr %0, i64 152
  %18 = getelementptr inbounds nuw i8, ptr %0, i64 56
  %19 = getelementptr inbounds nuw i8, ptr %0, i64 120
  %20 = getelementptr inbounds nuw i8, ptr %0, i64 48
  %21 = getelementptr inbounds nuw i8, ptr %0, i64 248
  %22 = getelementptr inbounds nuw i8, ptr %0, i64 280
  %23 = getelementptr inbounds nuw i8, ptr %0, i64 192
  %.not4770 = icmp eq i32 %2, 0
  br i1 %.not4770, label %.split.us.split.us, label %.split.us.split

.split.us.split.us:                               ; preds = %.split.us, %.split.us.split.us.backedge
  %.048.us.us = phi i32 [ %.048.us.us.be, %.split.us.split.us.backedge ], [ 0, %.split.us ]
  %24 = zext nneg i32 %.048.us.us to i64
  %25 = getelementptr inbounds nuw [4 x i64], ptr %13, i64 0, i64 %24
  %26 = load i64, ptr %25, align 8, !tbaa !32
  %.not42.us.us = icmp slt i64 %12, %26
  br i1 %.not42.us.us, label %49, label %27

27:                                               ; preds = %.split.us.split.us
  %28 = load i64, ptr %14, align 8, !tbaa !33
  %29 = icmp slt i64 %28, %26
  br i1 %29, label %33, label %30

30:                                               ; preds = %27
  %.not43.us.us = icmp eq i64 %28, 0
  br i1 %.not43.us.us, label %31, label %49

31:                                               ; preds = %30
  %32 = load i64, ptr %15, align 8, !tbaa !34
  %.not44.us.us = icmp eq i64 %32, 0
  br i1 %.not44.us.us, label %33, label %49

33:                                               ; preds = %31, %27
  %34 = getelementptr inbounds nuw [4 x i64], ptr %16, i64 0, i64 %24
  %35 = load i64, ptr %34, align 8, !tbaa !32
  %.not45.us.us = icmp eq i64 %35, 0
  br i1 %.not45.us.us, label %49, label %36

36:                                               ; preds = %33
  %37 = getelementptr inbounds nuw [4 x i64], ptr %17, i64 0, i64 %24
  %38 = load i64, ptr %37, align 8, !tbaa !32
  store i64 %38, ptr %18, align 8, !tbaa !28
  %39 = getelementptr inbounds nuw [4 x i64], ptr %19, i64 0, i64 %24
  %40 = load i64, ptr %39, align 8, !tbaa !32
  store i64 %40, ptr %20, align 8, !tbaa !27
  %41 = getelementptr inbounds nuw [4 x i64], ptr %21, i64 0, i64 %24
  %42 = load i64, ptr %41, align 8, !tbaa !32
  store i64 %42, ptr %22, align 8, !tbaa !29
  %43 = load i64, ptr %15, align 8, !tbaa !34
  %44 = load i64, ptr %25, align 8, !tbaa !32
  %45 = sub nsw i64 %43, %44
  store i64 %45, ptr %23, align 8, !tbaa !30
  %46 = load i64, ptr %34, align 8, !tbaa !32
  %47 = icmp sge i64 %12, %46
  %48 = icmp samesign ult i32 %.048.us.us, 3
  %or.cond = and i1 %47, %48
  br i1 %or.cond, label %.split.us.split.us.backedge, label %.split50.us

49:                                               ; preds = %33, %31, %30, %.split.us.split.us
  %.old56 = icmp samesign ult i32 %.048.us.us, 3
  br i1 %.old56, label %.split.us.split.us.backedge, label %.split50.us

.split.us.split.us.backedge:                      ; preds = %49, %36
  %.048.us.us.be = add nuw nsw i32 %.048.us.us, 1
  br label %.split.us.split.us, !llvm.loop !35

.split.us.split:                                  ; preds = %.split.us, %.split.us.split.backedge
  %.048.us = phi i32 [ %.048.us.be, %.split.us.split.backedge ], [ 0, %.split.us ]
  %50 = zext nneg i32 %.048.us to i64
  %51 = getelementptr inbounds nuw [4 x i64], ptr %13, i64 0, i64 %50
  %52 = load i64, ptr %51, align 8, !tbaa !32
  %.not42.us = icmp slt i64 %12, %52
  br i1 %.not42.us, label %75, label %53

53:                                               ; preds = %.split.us.split
  %54 = load i64, ptr %14, align 8, !tbaa !33
  %55 = icmp slt i64 %54, %52
  br i1 %55, label %59, label %56

56:                                               ; preds = %53
  %.not43.us = icmp eq i64 %54, 0
  br i1 %.not43.us, label %57, label %75

57:                                               ; preds = %56
  %58 = load i64, ptr %15, align 8, !tbaa !34
  %.not44.us = icmp eq i64 %58, 0
  br i1 %.not44.us, label %59, label %75

59:                                               ; preds = %57, %53
  %60 = getelementptr inbounds nuw [4 x i64], ptr %16, i64 0, i64 %50
  %61 = load i64, ptr %60, align 8, !tbaa !32
  %.not45.us = icmp eq i64 %61, 0
  br i1 %.not45.us, label %75, label %62

62:                                               ; preds = %59
  %63 = getelementptr inbounds nuw [4 x i64], ptr %17, i64 0, i64 %50
  %64 = load i64, ptr %63, align 8, !tbaa !32
  store i64 %64, ptr %18, align 8, !tbaa !28
  %65 = getelementptr inbounds nuw [4 x i64], ptr %19, i64 0, i64 %50
  %66 = load i64, ptr %65, align 8, !tbaa !32
  store i64 %66, ptr %20, align 8, !tbaa !27
  %67 = getelementptr inbounds nuw [4 x i64], ptr %21, i64 0, i64 %50
  %68 = load i64, ptr %67, align 8, !tbaa !32
  store i64 %68, ptr %22, align 8, !tbaa !29
  %69 = load i64, ptr %15, align 8, !tbaa !34
  %70 = load i64, ptr %51, align 8, !tbaa !32
  %71 = sub nsw i64 %69, %70
  store i64 %71, ptr %23, align 8, !tbaa !30
  store i64 9223372036854775807, ptr %51, align 8, !tbaa !32
  %72 = load i64, ptr %60, align 8, !tbaa !32
  %73 = icmp sge i64 %12, %72
  %74 = icmp samesign ult i32 %.048.us, 3
  %or.cond59 = and i1 %73, %74
  br i1 %or.cond59, label %.split.us.split.backedge, label %.split50.us

75:                                               ; preds = %59, %57, %56, %.split.us.split
  %.old58 = icmp samesign ult i32 %.048.us, 3
  br i1 %.old58, label %.split.us.split.backedge, label %.split50.us

.split.us.split.backedge:                         ; preds = %75, %62
  %.048.us.be = add nuw nsw i32 %.048.us, 1
  br label %.split.us.split, !llvm.loop !35

.split:                                           ; preds = %4
  %76 = getelementptr inbounds nuw i8, ptr %0, i64 24
  %77 = load i64, ptr %76, align 8, !tbaa !31
  %78 = sext i32 %1 to i64
  %79 = add nsw i64 %77, %78
  %80 = getelementptr inbounds nuw i8, ptr %0, i64 88
  %81 = getelementptr inbounds nuw i8, ptr %0, i64 16
  %82 = getelementptr inbounds nuw i8, ptr %0, i64 32
  %83 = getelementptr inbounds nuw i8, ptr %0, i64 200
  %84 = getelementptr inbounds nuw i8, ptr %0, i64 152
  %85 = getelementptr inbounds nuw i8, ptr %0, i64 56
  %86 = getelementptr inbounds nuw i8, ptr %0, i64 120
  %87 = getelementptr inbounds nuw i8, ptr %0, i64 48
  %88 = getelementptr inbounds nuw i8, ptr %0, i64 248
  %89 = getelementptr inbounds nuw i8, ptr %0, i64 280
  %90 = getelementptr inbounds nuw i8, ptr %0, i64 192
  %.not47 = icmp eq i32 %2, 0
  br i1 %.not47, label %.split.split.us, label %.split.split

.split.split.us:                                  ; preds = %.split, %.split.split.us.backedge
  %.048.us51 = phi i32 [ %.048.us51.be, %.split.split.us.backedge ], [ 0, %.split ]
  %91 = zext nneg i32 %.048.us51 to i64
  %92 = getelementptr inbounds nuw [4 x i64], ptr %80, i64 0, i64 %91
  %93 = load i64, ptr %92, align 8, !tbaa !32
  %.not42.us52 = icmp slt i64 %79, %93
  br i1 %.not42.us52, label %118, label %94

94:                                               ; preds = %.split.split.us
  %95 = load i64, ptr %81, align 8, !tbaa !33
  %96 = icmp slt i64 %95, %93
  br i1 %96, label %100, label %97

97:                                               ; preds = %94
  %.not43.us53 = icmp eq i64 %95, 0
  br i1 %.not43.us53, label %98, label %118

98:                                               ; preds = %97
  %99 = load i64, ptr %82, align 8, !tbaa !34
  %.not44.us54 = icmp eq i64 %99, 0
  br i1 %.not44.us54, label %100, label %118

100:                                              ; preds = %98, %94
  %101 = getelementptr inbounds nuw [4 x i64], ptr %83, i64 0, i64 %91
  %102 = load i64, ptr %101, align 8, !tbaa !32
  %.not45.us55 = icmp eq i64 %102, 0
  br i1 %.not45.us55, label %118, label %103

103:                                              ; preds = %100
  %104 = getelementptr inbounds nuw [4 x i64], ptr %84, i64 0, i64 %91
  %105 = load i64, ptr %104, align 8, !tbaa !32
  %.not46.us = icmp eq i64 %105, -9223372036854775808
  br i1 %.not46.us, label %114, label %106

106:                                              ; preds = %103
  store i64 %105, ptr %85, align 8, !tbaa !28
  %107 = getelementptr inbounds nuw [4 x i64], ptr %86, i64 0, i64 %91
  %108 = load i64, ptr %107, align 8, !tbaa !32
  store i64 %108, ptr %87, align 8, !tbaa !27
  %109 = getelementptr inbounds nuw [4 x i64], ptr %88, i64 0, i64 %91
  %110 = load i64, ptr %109, align 8, !tbaa !32
  store i64 %110, ptr %89, align 8, !tbaa !29
  %111 = load i64, ptr %82, align 8, !tbaa !34
  %112 = load i64, ptr %92, align 8, !tbaa !32
  %113 = sub nsw i64 %111, %112
  store i64 %113, ptr %90, align 8, !tbaa !30
  %.pre69 = load i64, ptr %101, align 8, !tbaa !32
  br label %114

114:                                              ; preds = %106, %103
  %115 = phi i64 [ %.pre69, %106 ], [ %102, %103 ]
  %116 = icmp sge i64 %79, %115
  %117 = icmp samesign ult i32 %.048.us51, 3
  %or.cond62 = and i1 %116, %117
  br i1 %or.cond62, label %.split.split.us.backedge, label %.split50.us

118:                                              ; preds = %100, %98, %97, %.split.split.us
  %.old61 = icmp samesign ult i32 %.048.us51, 3
  br i1 %.old61, label %.split.split.us.backedge, label %.split50.us

.split.split.us.backedge:                         ; preds = %118, %114
  %.048.us51.be = add nuw nsw i32 %.048.us51, 1
  br label %.split.split.us, !llvm.loop !35

.split.split:                                     ; preds = %.split, %.split.split.backedge
  %.048 = phi i32 [ %.048.be, %.split.split.backedge ], [ 0, %.split ]
  %119 = zext nneg i32 %.048 to i64
  %120 = getelementptr inbounds nuw [4 x i64], ptr %80, i64 0, i64 %119
  %121 = load i64, ptr %120, align 8, !tbaa !32
  %.not42 = icmp slt i64 %79, %121
  br i1 %.not42, label %146, label %122

122:                                              ; preds = %.split.split
  %123 = load i64, ptr %81, align 8, !tbaa !33
  %124 = icmp slt i64 %123, %121
  br i1 %124, label %128, label %125

125:                                              ; preds = %122
  %.not43 = icmp eq i64 %123, 0
  br i1 %.not43, label %126, label %146

126:                                              ; preds = %125
  %127 = load i64, ptr %82, align 8, !tbaa !34
  %.not44 = icmp eq i64 %127, 0
  br i1 %.not44, label %128, label %146

128:                                              ; preds = %126, %122
  %129 = getelementptr inbounds nuw [4 x i64], ptr %83, i64 0, i64 %119
  %130 = load i64, ptr %129, align 8, !tbaa !32
  %.not45 = icmp eq i64 %130, 0
  br i1 %.not45, label %146, label %131

131:                                              ; preds = %128
  %132 = getelementptr inbounds nuw [4 x i64], ptr %84, i64 0, i64 %119
  %133 = load i64, ptr %132, align 8, !tbaa !32
  %.not46 = icmp eq i64 %133, -9223372036854775808
  br i1 %.not46, label %142, label %134

134:                                              ; preds = %131
  store i64 %133, ptr %85, align 8, !tbaa !28
  %135 = getelementptr inbounds nuw [4 x i64], ptr %86, i64 0, i64 %119
  %136 = load i64, ptr %135, align 8, !tbaa !32
  store i64 %136, ptr %87, align 8, !tbaa !27
  %137 = getelementptr inbounds nuw [4 x i64], ptr %88, i64 0, i64 %119
  %138 = load i64, ptr %137, align 8, !tbaa !32
  store i64 %138, ptr %89, align 8, !tbaa !29
  %139 = load i64, ptr %82, align 8, !tbaa !34
  %140 = load i64, ptr %120, align 8, !tbaa !32
  %141 = sub nsw i64 %139, %140
  store i64 %141, ptr %90, align 8, !tbaa !30
  %.pre = load i64, ptr %129, align 8, !tbaa !32
  br label %142

142:                                              ; preds = %134, %131
  %143 = phi i64 [ %.pre, %134 ], [ %130, %131 ]
  store i64 9223372036854775807, ptr %120, align 8, !tbaa !32
  %144 = icmp sge i64 %79, %143
  %145 = icmp samesign ult i32 %.048, 3
  %or.cond65 = and i1 %144, %145
  br i1 %or.cond65, label %.split.split.backedge, label %.split50.us

146:                                              ; preds = %.split.split, %125, %126, %128
  %.old64 = icmp samesign ult i32 %.048, 3
  br i1 %.old64, label %.split.split.backedge, label %.split50.us

.split.split.backedge:                            ; preds = %146, %142
  %.048.be = add nuw nsw i32 %.048, 1
  br label %.split.split, !llvm.loop !35

.split50.us:                                      ; preds = %142, %146, %118, %114, %75, %62, %49, %36
  ret void
}